; ModuleID = '54/1295.cpp'
source_filename = "54/1295.cpp"
target datalayout = "e-m:e-p270:32:32-p271:32:32-p272:64:64-i64:64-f80:128-n8:16:32:64-S128"
target triple = "x86_64-pc-linux-gnu"

%"class.std::ios_base::Init" = type { i8 }
%"class.std::basic_istream" = type { i32 (...)**, i64, %"class.std::basic_ios" }
%"class.std::basic_ios" = type { %"class.std::ios_base", %"class.std::basic_ostream"*, i8, i8, %"class.std::basic_streambuf"*, %"class.std::ctype"*, %"class.std::num_put"*, %"class.std::num_get"* }
%"class.std::ios_base" = type { i32 (...)**, i64, i64, i32, i32, i32, %"struct.std::ios_base::_Callback_list"*, %"struct.std::ios_base::_Words", [8 x %"struct.std::ios_base::_Words"], i32, %"struct.std::ios_base::_Words"*, %"class.std::locale" }
%"struct.std::ios_base::_Callback_list" = type { %"struct.std::ios_base::_Callback_list"*, void (i32, %"class.std::ios_base"*, i32)*, i32, i32 }
%"struct.std::ios_base::_Words" = type { i8*, i64 }
%"class.std::locale" = type { %"class.std::locale::_Impl"* }
%"class.std::locale::_Impl" = type { i32, %"class.std::locale::facet"**, i64, %"class.std::locale::facet"**, i8** }
%"class.std::locale::facet" = type <{ i32 (...)**, i32, [4 x i8] }>
%"class.std::basic_ostream" = type { i32 (...)**, %"class.std::basic_ios" }
%"class.std::basic_streambuf" = type { i32 (...)**, i8*, i8*, i8*, i8*, i8*, i8*, %"class.std::locale" }
%"class.std::ctype" = type <{ %"class.std::locale::facet.base", [4 x i8], %struct.__locale_struct*, i8, [7 x i8], i32*, i32*, i16*, i8, [256 x i8], [256 x i8], i8, [6 x i8] }>
%"class.std::locale::facet.base" = type <{ i32 (...)**, i32 }>
%struct.__locale_struct = type { [13 x %struct.__locale_data*], i16*, i32*, i32*, [13 x i8*] }
%struct.__locale_data = type opaque
%"class.std::num_put" = type { %"class.std::locale::facet.base", [4 x i8] }
%"class.std::num_get" = type { %"class.std::locale::facet.base", [4 x i8] }

@_ZStL8__ioinit = internal global %"class.std::ios_base::Init" zeroinitializer, align 1
@__dso_handle = external hidden global i8
@totalmember = dso_local global i32 0, align 4
@lastnumber = dso_local global i32 0, align 4
@_ZSt3cin = external dso_local global %"class.std::basic_istream", align 8
@_ZSt4cout = external dso_local global %"class.std::basic_ostream", align 8
@llvm.global_ctors = appending global [1 x { i32, void ()*, i8* }] [{ i32, void ()*, i8* } { i32 65535, void ()* @_GLOBAL__sub_I_1295.cpp, i8* null }]

; Function Attrs: noinline uwtable
define internal void @__cxx_global_var_init() #0 section ".text.startup" {
  call void @_ZNSt8ios_base4InitC1Ev(%"class.std::ios_base::Init"* @_ZStL8__ioinit)
  %1 = call i32 @__cxa_atexit(void (i8*)* bitcast (void (%"class.std::ios_base::Init"*)* @_ZNSt8ios_base4InitD1Ev to void (i8*)*), i8* getelementptr inbounds (%"class.std::ios_base::Init", %"class.std::ios_base::Init"* @_ZStL8__ioinit, i32 0, i32 0), i8* @__dso_handle) #3
  ret void
}

declare dso_local void @_ZNSt8ios_base4InitC1Ev(%"class.std::ios_base::Init"*) unnamed_addr #1

; Function Attrs: nounwind
declare dso_local void @_ZNSt8ios_base4InitD1Ev(%"class.std::ios_base::Init"*) unnamed_addr #2

; Function Attrs: nounwind
declare dso_local i32 @__cxa_atexit(void (i8*)*, i8*, i8*) #3

; Function Attrs: noinline norecurse uwtable
define dso_local i32 @main() #4 {
  %1 = alloca i32, align 4
  %2 = alloca i32, align 4
  %3 = alloca i32, align 4
  store i32 0, i32* %1, align 4
  store i32 1, i32* %3, align 4
  %4 = call dereferenceable(280) %"class.std::basic_istream"* @_ZNSirsERi(%"class.std::basic_istream"* @_ZSt3cin, i32* dereferenceable(4) @totalmember)
  %5 = call dereferenceable(280) %"class.std::basic_istream"* @_ZNSirsERi(%"class.std::basic_istream"* %4, i32* dereferenceable(4) %2)
  store i32 0, i32* @lastnumber, align 4
  br label %6

6:                                                ; preds = %31, %0
  %7 = load i32, i32* %3, align 4
  %8 = icmp ne i32 %7, 0
  br i1 %8, label %9, label %32

9:                                                ; preds = %6
  %10 = load i32, i32* @lastnumber, align 4
  %11 = add nsw i32 %10, 1
  store i32 %11, i32* @lastnumber, align 4
  %12 = load i32, i32* @totalmember, align 4
  %13 = load i32, i32* %2, align 4
  %14 = load i32, i32* @lastnumber, align 4
  %15 = call i32 @_Z8functioniii(i32 %12, i32 %13, i32 %14)
  %16 = load i32, i32* %2, align 4
  %17 = sub nsw i32 0, %16
  %18 = load i32, i32* @totalmember, align 4
  %19 = sub nsw i32 %18, 1
  %20 = mul nsw i32 %17, %19
  %21 = icmp ne i32 %15, %20
  br i1 %21, label %22, label %31

22:                                               ; preds = %9
  %23 = load i32, i32* @totalmember, align 4
  %24 = load i32, i32* %2, align 4
  %25 = load i32, i32* @lastnumber, align 4
  %26 = call i32 @_Z8functioniii(i32 %23, i32 %24, i32 %25)
  %27 = call dereferenceable(272) %"class.std::basic_ostream"* @_ZNSolsEi(%"class.std::basic_ostream"* @_ZSt4cout, i32 %26)
  %28 = call dereferenceable(272) %"class.std::basic_ostream"* @_ZNSolsEPFRSoS_E(%"class.std::basic_ostream"* %27, %"class.std::basic_ostream"* (%"class.std::basic_ostream"*)* @_ZSt4endlIcSt11char_traitsIcEERSt13basic_ostreamIT_T0_ES6_)
  %29 = load i32, i32* %3, align 4
  %30 = add nsw i32 %29, -1
  store i32 %30, i32* %3, align 4
  br label %31

31:                                               ; preds = %22, %9
  br label %6

32:                                               ; preds = %6
  %33 = load i32, i32* %1, align 4
  ret i32 %33
}

declare dso_local dereferenceable(280) %"class.std::basic_istream"* @_ZNSirsERi(%"class.std::basic_istream"*, i32* dereferenceable(4)) #1

; Function Attrs: noinline uwtable
define dso_local i32 @_Z8functioniii(i32 %0, i32 %1, i32 %2) #0 {
  %4 = alloca i32, align 4
  %5 = alloca i32, align 4
  %6 = alloca i32, align 4
  %7 = alloca i32, align 4
  store i32 %0, i32* %5, align 4
  store i32 %1, i32* %6, align 4
  store i32 %2, i32* %7, align 4
  %8 = load i32, i32* %5, align 4
  %9 = icmp eq i32 %8, 1
  br i1 %9, label %10, label %16

10:                                               ; preds = %3
  %11 = load i32, i32* @totalmember, align 4
  %12 = load i32, i32* %7, align 4
  %13 = mul nsw i32 %11, %12
  %14 = load i32, i32* %6, align 4
  %15 = add nsw i32 %13, %14
  store i32 %15, i32* %4, align 4
  br label %45

16:                                               ; preds = %3
  %17 = load i32, i32* %5, align 4
  %18 = sub nsw i32 %17, 1
  %19 = load i32, i32* %6, align 4
  %20 = load i32, i32* %7, align 4
  %21 = call i32 @_Z8functioniii(i32 %18, i32 %19, i32 %20)
  %22 = load i32, i32* @totalmember, align 4
  %23 = sub nsw i32 %22, 1
  %24 = srem i32 %21, %23
  %25 = icmp eq i32 %24, 0
  br i1 %25, label %26, label %39

26:                                               ; preds = %16
  %27 = load i32, i32* @totalmember, align 4
  %28 = load i32, i32* %5, align 4
  %29 = sub nsw i32 %28, 1
  %30 = load i32, i32* %6, align 4
  %31 = load i32, i32* %7, align 4
  %32 = call i32 @_Z8functioniii(i32 %29, i32 %30, i32 %31)
  %33 = mul nsw i32 %27, %32
  %34 = load i32, i32* @totalmember, align 4
  %35 = sub nsw i32 %34, 1
  %36 = sdiv i32 %33, %35
  %37 = load i32, i32* %6, align 4
  %38 = add nsw i32 %36, %37
  store i32 %38, i32* %4, align 4
  br label %45

39:                                               ; preds = %16
  %40 = load i32, i32* %6, align 4
  %41 = sub nsw i32 0, %40
  %42 = load i32, i32* @totalmember, align 4
  %43 = sub nsw i32 %42, 1
  %44 = mul nsw i32 %41, %43
  store i32 %44, i32* %4, align 4
  br label %45

45:                                               ; preds = %39, %26, %10
  %46 = load i32, i32* %4, align 4
  ret i32 %46
}

declare dso_local dereferenceable(272) %"class.std::basic_ostream"* @_ZNSolsEi(%"class.std::basic_ostream"*, i32) #1

declare dso_local dereferenceable(272) %"class.std::basic_ostream"* @_ZNSolsEPFRSoS_E(%"class.std::basic_ostream"*, %"class.std::basic_ostream"* (%"class.std::basic_ostream"*)*) #1

declare dso_local dereferenceable(272) %"class.std::basic_ostream"* @_ZSt4endlIcSt11char_traitsIcEERSt13basic_ostreamIT_T0_ES6_(%"class.std::basic_ostream"* dereferenceable(272)) #1

; Function Attrs: noinline uwtable
define internal void @_GLOBAL__sub_I_1295.cpp() #0 section ".text.startup" {
  call void @__cxx_global_var_init()
  ret void
}


!llvm.module.flags = !{!0}
!llvm.ident = !{!1}

!0 = !{i32 1, !"wchar_size", i32 4}
!1 = !{!"clang version 10.0.0-4ubuntu1 "}
